; Function Attrs: mustprogress nofree norecurse nosync nounwind willreturn memory(read, inaccessiblemem: none) uwtable
define hidden noundef zeroext i1 @_ZNK6Method21is_not_osr_compilableEi(ptr nocapture noundef nonnull readonly align 8 dereferenceable(88) %0, i32 noundef %1) local_unnamed_addr #7 align 2 {
  %3 = getelementptr inbounds i8, ptr %0, i64 24
  %4 = load ptr, ptr %3, align 8
  %5 = icmp eq ptr %4, null
  br i1 %5, label %_ZNK6Method21number_of_breakpointsEv.exit.thread.i, label %_ZNK6Method21number_of_breakpointsEv.exit.i

_ZNK6Method21number_of_breakpointsEv.exit.i:      ; preds = %2
  %6 = getelementptr inbounds i8, ptr %4, i64 42
  %7 = load i16, ptr %6, align 2
  %.not.i = icmp eq i16 %7, 0
  br i1 %.not.i, label %_ZNK6Method21number_of_breakpointsEv.exit.thread.i, label %_ZNK6Method17is_not_compilableEi.exit.thread7

_ZNK6Method21number_of_breakpointsEv.exit.thread.i: ; preds = %_ZNK6Method21number_of_breakpointsEv.exit.i, %2
  %8 = getelementptr inbounds i8, ptr %0, i64 52
  %9 = load i16, ptr %8, align 4
  %10 = zext i16 %9 to i32
  %11 = add nsw i32 %10, -396
  %12 = icmp ult i32 %11, 7
  %13 = icmp ne i16 %9, 396
  %spec.select.i.i.i.i = and i1 %13, %12
  %14 = and i16 %9, -2
  %spec.select.i1.i.i.i = icmp eq i16 %14, 198
  %or.cond.i.i = or i1 %spec.select.i1.i.i.i, %spec.select.i.i.i.i
  br i1 %or.cond.i.i, label %_ZNK6Method27is_special_native_intrinsicEv.exit.thread.i.i, label %_ZNK6Method20is_always_compilableEv.exit.i

_ZNK6Method27is_special_native_intrinsicEv.exit.thread.i.i: ; preds = %_ZNK6Method21number_of_breakpointsEv.exit.thread.i
  %15 = getelementptr inbounds i8, ptr %0, i64 40
  %.sroa.0.0.copyload.i.i.i.i = load i32, ptr %15, align 8
  %16 = and i32 %.sroa.0.0.copyload.i.i.i.i, 4096
  %.not.i.i = icmp eq i32 %16, 0
  br i1 %.not.i.i, label %_ZNK6Method20is_always_compilableEv.exit.i, label %34

_ZNK6Method20is_always_compilableEv.exit.i:       ; preds = %_ZNK6Method27is_special_native_intrinsicEv.exit.thread.i.i, %_ZNK6Method21number_of_breakpointsEv.exit.thread.i
  %17 = icmp eq i32 %1, -1
  br i1 %17, label %18, label %22

18:                                               ; preds = %_ZNK6Method20is_always_compilableEv.exit.i
  %19 = getelementptr inbounds i8, ptr %0, i64 48
  %20 = load i32, ptr %19, align 8
  %21 = and i32 %20, 768
  %or.cond = icmp eq i32 %21, 768
  br i1 %or.cond, label %_ZNK6Method17is_not_compilableEi.exit.thread7, label %.thread10

22:                                               ; preds = %_ZNK6Method20is_always_compilableEv.exit.i
  %23 = add i32 %1, -1
  %24 = icmp ult i32 %23, 3
  br i1 %24, label %25, label %29

25:                                               ; preds = %22
  %26 = getelementptr inbounds i8, ptr %0, i64 48
  %27 = load i32, ptr %26, align 8
  %28 = and i32 %27, 512
  %.not14 = icmp ne i32 %28, 0
  br label %_ZNK6Method17is_not_compilableEi.exit.thread7

29:                                               ; preds = %22
  switch i32 %1, label %_ZNK6Method17is_not_compilableEi.exit.thread7 [
    i32 4, label %30
    i32 -1, label %.thread10
  ]

30:                                               ; preds = %29
  %31 = getelementptr inbounds i8, ptr %0, i64 48
  %32 = load i32, ptr %31, align 8
  %33 = and i32 %32, 256
  %.not = icmp eq i32 %33, 0
  br i1 %.not, label %.thread12, label %_ZNK6Method17is_not_compilableEi.exit.thread7

34:                                               ; preds = %_ZNK6Method27is_special_native_intrinsicEv.exit.thread.i.i
  %35 = icmp eq i32 %1, -1
  br i1 %35, label %.thread10, label %.thread

.thread10:                                        ; preds = %29, %18, %34
  %36 = getelementptr inbounds i8, ptr %0, i64 48
  %37 = load i32, ptr %36, align 8
  %38 = and i32 %37, 512
  %.not15 = icmp eq i32 %38, 0
  br i1 %.not15, label %_ZNK6Method17is_not_compilableEi.exit.thread7, label %39

39:                                               ; preds = %.thread10
  %40 = and i32 %37, 1024
  %41 = icmp ne i32 %40, 0
  br label %_ZNK6Method17is_not_compilableEi.exit.thread7

.thread:                                          ; preds = %34
  %.pre19 = add i32 %1, -1
  %42 = icmp ult i32 %.pre19, 3
  br i1 %42, label %.thread..thread.thread_crit_edge, label %.thread.thread21

.thread..thread.thread_crit_edge:                 ; preds = %.thread
  %.phi.trans.insert16 = getelementptr inbounds i8, ptr %0, i64 48
  %.pre17 = load i32, ptr %.phi.trans.insert16, align 8
  %.pre18 = and i32 %.pre17, 512
  %43 = icmp ne i32 %.pre18, 0
  br label %_ZNK6Method17is_not_compilableEi.exit.thread7

.thread.thread21:                                 ; preds = %.thread
  %44 = icmp eq i32 %1, 4
  br i1 %44, label %..thread12_crit_edge, label %_ZNK6Method17is_not_compilableEi.exit.thread7

..thread12_crit_edge:                             ; preds = %.thread.thread21
  %.phi.trans.insert = getelementptr inbounds i8, ptr %0, i64 48
  %.pre = load i32, ptr %.phi.trans.insert, align 8
  br label %.thread12

.thread12:                                        ; preds = %..thread12_crit_edge, %30
  %45 = phi i32 [ %.pre, %..thread12_crit_edge ], [ %32, %30 ]
  %46 = and i32 %45, 1024
  %47 = icmp ne i32 %46, 0
  br label %_ZNK6Method17is_not_compilableEi.exit.thread7

_ZNK6Method17is_not_compilableEi.exit.thread7:    ; preds = %25, %29, %.thread..thread.thread_crit_edge, %18, %_ZNK6Method21number_of_breakpointsEv.exit.i, %30, %.thread.thread21, %.thread10, %39, %.thread12
  %.0 = phi i1 [ %47, %.thread12 ], [ false, %.thread10 ], [ %41, %39 ], [ false, %.thread.thread21 ], [ true, %30 ], [ true, %_ZNK6Method21number_of_breakpointsEv.exit.i ], [ true, %18 ], [ %43, %.thread..thread.thread_crit_edge ], [ %.not14, %25 ], [ false, %29 ]
  ret i1 %.0
}